target datalayout = "e-m:e-p270:32:32-p271:32:32-p272:64:64-i64:64-i128:128-f80:128-n8:16:32:64-S128"
target triple = "x86_64-pc-linux-gnu"

%"class.nanobind::handle" = type { ptr }
%"struct.nanobind::detail::tuple.115" = type { %"struct.nanobind::detail::type_caster" }
%"struct.nanobind::detail::type_caster" = type { i32 }
%struct.ExampleST = type <{ %"class.std::enable_shared_from_this", i32, [4 x i8] }>
%"class.std::enable_shared_from_this" = type { %"class.std::weak_ptr" }
%"class.std::weak_ptr" = type { %"class.std::__weak_ptr" }
%"class.std::__weak_ptr" = type { ptr, %"class.std::__weak_count" }
%"class.std::__weak_count" = type { ptr }
%class.anon.272 = type { i8 }

@_ZL7created = internal global i32 0, align 4

; Function Attrs: mustprogress nounwind optsize uwtable
define linkonce_odr void @_ZNSt12__weak_countILN9__gnu_cxx12_Lock_policyE2EEC2Ev(ptr noundef nonnull align 8 dereferenceable(8) %0) unnamed_addr #8 comdat align 2 {
  %2 = alloca ptr, align 8
  store ptr %0, ptr %2, align 8, !tbaa !403
  %3 = load ptr, ptr %2, align 8
  %4 = getelementptr inbounds nuw %"class.std::__weak_count", ptr %3, i32 0, i32 0
  store ptr null, ptr %4, align 8, !tbaa !405
  ret void
}

; Function Attrs: mustprogress nounwind optsize uwtable
define linkonce_odr hidden void @_ZNSt10__weak_ptrI9ExampleSTLN9__gnu_cxx12_Lock_policyE2EEC2Ev(ptr noundef nonnull align 8 dereferenceable(16) %0) unnamed_addr #8 comdat align 2 {
  %2 = alloca ptr, align 8
  store ptr %0, ptr %2, align 8, !tbaa !400
  %3 = load ptr, ptr %2, align 8
  %4 = getelementptr inbounds nuw %"class.std::__weak_ptr", ptr %3, i32 0, i32 0
  store ptr null, ptr %4, align 8, !tbaa !402
  %5 = getelementptr inbounds nuw %"class.std::__weak_ptr", ptr %3, i32 0, i32 1
  call void @_ZNSt12__weak_countILN9__gnu_cxx12_Lock_policyE2EEC2Ev(ptr noundef nonnull align 8 dereferenceable(8) %5) #21
  ret void
}

; Function Attrs: mustprogress nounwind optsize uwtable
define linkonce_odr hidden void @_ZNSt8weak_ptrI9ExampleSTEC2Ev(ptr noundef nonnull align 8 dereferenceable(16) %0) unnamed_addr #8 comdat align 2 {
  %2 = alloca ptr, align 8
  store ptr %0, ptr %2, align 8, !tbaa !398
  %3 = load ptr, ptr %2, align 8
  call void @_ZNSt10__weak_ptrI9ExampleSTLN9__gnu_cxx12_Lock_policyE2EEC2Ev(ptr noundef nonnull align 8 dereferenceable(16) %3) #21
  ret void
}

; Function Attrs: mustprogress nounwind optsize uwtable
define linkonce_odr hidden void @_ZNSt23enable_shared_from_thisI9ExampleSTEC2Ev(ptr noundef nonnull align 8 dereferenceable(16) %0) unnamed_addr #8 comdat align 2 {
  %2 = alloca ptr, align 8
  store ptr %0, ptr %2, align 8, !tbaa !396
  %3 = load ptr, ptr %2, align 8
  %4 = getelementptr inbounds nuw %"class.std::enable_shared_from_this", ptr %3, i32 0, i32 0
  call void @_ZNSt8weak_ptrI9ExampleSTEC2Ev(ptr noundef nonnull align 8 dereferenceable(16) %4) #21
  ret void
}

; Function Attrs: mustprogress nounwind optsize uwtable
define linkonce_odr hidden void @_ZN9ExampleSTC2Ei(ptr noundef nonnull align 8 dereferenceable(20) %0, i32 noundef %1) unnamed_addr #8 comdat align 2 {
  %3 = alloca ptr, align 8
  %4 = alloca i32, align 4
  store ptr %0, ptr %3, align 8, !tbaa !388
  store i32 %1, ptr %4, align 4, !tbaa !22
  %5 = load ptr, ptr %3, align 8
  call void @_ZNSt23enable_shared_from_thisI9ExampleSTEC2Ev(ptr noundef nonnull align 8 dereferenceable(16) %5) #21
  %6 = getelementptr inbounds nuw %struct.ExampleST, ptr %5, i32 0, i32 1
  %7 = load i32, ptr %4, align 4, !tbaa !22
  store i32 %7, ptr %6, align 8, !tbaa !390
  %8 = load i32, ptr @_ZL7created, align 4, !tbaa !22
  %9 = add nsw i32 %8, 1
  store i32 %9, ptr @_ZL7created, align 4, !tbaa !22
  ret void
}

; Function Attrs: noinline noreturn nounwind optsize uwtable
define linkonce_odr hidden void @__clang_call_terminate(ptr noundef %0) #7 comdat {
  %2 = call ptr @__cxa_begin_catch(ptr %0) #20
  call void @_ZSt9terminatev() #22
  unreachable
}

; Function Attrs: alwaysinline mustprogress nounwind optsize uwtable
define internal noundef i32 @_ZN8nanobind6detail12infer_policyIPZL30nanobind_init_test_holders_extRNS_7module_EE9DerivedSTEENS_9rv_policyES6_(i32 noundef %0) #5 {
  %2 = alloca i32, align 4
  store i32 %0, ptr %2, align 4, !tbaa !20
  %3 = load i32, ptr %2, align 4, !tbaa !20
  %4 = icmp eq i32 %3, 0
  br i1 %4, label %5, label %6

5:                                                ; preds = %1
  store i32 2, ptr %2, align 4, !tbaa !20
  br label %11

6:                                                ; preds = %1
  %7 = load i32, ptr %2, align 4, !tbaa !20
  %8 = icmp eq i32 %7, 1
  br i1 %8, label %9, label %10

9:                                                ; preds = %6
  store i32 5, ptr %2, align 4, !tbaa !20
  br label %10

10:                                               ; preds = %9, %6
  br label %11

11:                                               ; preds = %10, %5
  %12 = load i32, ptr %2, align 4, !tbaa !20
  ret i32 %12
}

; Function Attrs: mustprogress optsize uwtable
define linkonce_odr hidden noundef ptr @_ZN9ExampleST4makeEi(i32 noundef %0) #0 comdat align 2 personality ptr @__gxx_personality_v0 {
  %2 = alloca i32, align 4
  %3 = alloca ptr, align 8
  %4 = alloca i32, align 4
  store i32 %0, ptr %2, align 4, !tbaa !22
  %5 = call noalias noundef nonnull ptr @_Znwm(i64 noundef 24) #23
  %6 = load i32, ptr %2, align 4, !tbaa !22
  invoke void @_ZN9ExampleSTC2Ei(ptr noundef nonnull align 8 dereferenceable(20) %5, i32 noundef %6) #19
          to label %7 unwind label %8

7:                                                ; preds = %1
  ret ptr %5

8:                                                ; preds = %1
  %9 = landingpad { ptr, i32 }
          cleanup
  %10 = extractvalue { ptr, i32 } %9, 0
  store ptr %10, ptr %3, align 8
  %11 = extractvalue { ptr, i32 } %9, 1
  store i32 %11, ptr %4, align 4
  call void @_ZdlPvm(ptr noundef %5, i64 noundef 24) #24
  br label %12

12:                                               ; preds = %8
  %13 = load ptr, ptr %3, align 8
  %14 = load i32, ptr %4, align 4
  %15 = insertvalue { ptr, i32 } poison, ptr %13, 0
  %16 = insertvalue { ptr, i32 } %15, i32 %14, 1
  resume { ptr, i32 } %16
}

; Function Attrs: alwaysinline mustprogress nounwind optsize uwtable
define linkonce_odr hidden noundef ptr @_ZNK8nanobind6handle3ptrEv(ptr noundef nonnull align 8 dereferenceable(8) %0) #5 comdat align 2 {
  %2 = alloca ptr, align 8
  store ptr %0, ptr %2, align 8, !tbaa !12
  %3 = load ptr, ptr %2, align 8
  %4 = getelementptr inbounds nuw %"class.nanobind::handle", ptr %3, i32 0, i32 0
  %5 = load ptr, ptr %4, align 8, !tbaa !14
  ret ptr %5
}

; Function Attrs: alwaysinline mustprogress nounwind optsize uwtable
define internal ptr @_ZN8nanobind6detail16type_caster_baseIZL30nanobind_init_test_holders_extRNS_7module_EE9DerivedSTE8from_cppIPS4_EENS_6handleEOT_NS_9rv_policyEPNS0_12cleanup_listE(ptr noundef nonnull align 8 dereferenceable(8) %0, i32 noundef %1, ptr noundef %2) #5 align 2 personality ptr @__gxx_personality_v0 {
  %4 = alloca %"class.nanobind::handle", align 8
  %5 = alloca ptr, align 8
  %6 = alloca i32, align 4
  %7 = alloca ptr, align 8
  %8 = alloca ptr, align 8
  %9 = alloca ptr, align 8
  %10 = alloca i8, align 1
  store ptr %0, ptr %5, align 8, !tbaa !503
  store i32 %1, ptr %6, align 4, !tbaa !20
  store ptr %2, ptr %7, align 8, !tbaa !190
  call void @llvm.lifetime.start.p0(i64 8, ptr %8) #20
  %11 = load ptr, ptr %5, align 8, !tbaa !503
  %12 = load ptr, ptr %11, align 8, !tbaa !479
  store ptr %12, ptr %8, align 8, !tbaa !479
  %13 = load i32, ptr %6, align 4, !tbaa !20
  %14 = invoke noundef i32 @_ZN8nanobind6detail12infer_policyIPZL30nanobind_init_test_holders_extRNS_7module_EE9DerivedSTEENS_9rv_policyES6_(i32 noundef %13) #19
          to label %15 unwind label %24

15:                                               ; preds = %3
  store i32 %14, ptr %6, align 4, !tbaa !20
  call void @llvm.lifetime.start.p0(i64 8, ptr %9) #20
  store ptr @_ZTIZL30nanobind_init_test_holders_extRN8nanobind7module_EE9DerivedST, ptr %9, align 8, !tbaa !181
  call void @llvm.lifetime.start.p0(i64 1, ptr %10) #20
  store i8 0, ptr %10, align 1, !tbaa !24
  %16 = load ptr, ptr %9, align 8, !tbaa !181
  %17 = load ptr, ptr %8, align 8, !tbaa !479
  %18 = load i32, ptr %6, align 4, !tbaa !20
  %19 = load ptr, ptr %7, align 8, !tbaa !190
  %20 = call noundef ptr @_ZN8nanobind6detail11nb_type_putEPKSt9type_infoPvNS_9rv_policyEPNS0_12cleanup_listEPb(ptr noundef %16, ptr noundef %17, i32 noundef %18, ptr noundef %19, ptr noundef null) #21
  invoke void @_ZN8nanobind6handleC2EPK7_object(ptr noundef nonnull align 8 dereferenceable(8) %4, ptr noundef %20) #19
          to label %21 unwind label %24

21:                                               ; preds = %15
  call void @llvm.lifetime.end.p0(i64 1, ptr %10) #20
  call void @llvm.lifetime.end.p0(i64 8, ptr %9) #20
  call void @llvm.lifetime.end.p0(i64 8, ptr %8) #20
  %22 = getelementptr inbounds nuw %"class.nanobind::handle", ptr %4, i32 0, i32 0
  %23 = load ptr, ptr %22, align 8
  ret ptr %23

24:                                               ; preds = %15, %3
  %25 = landingpad { ptr, i32 }
          catch ptr null
  %26 = extractvalue { ptr, i32 } %25, 0
  call void @__clang_call_terminate(ptr %26) #22
  unreachable
}

; Function Attrs: inlinehint mustprogress optsize uwtable
define internal noundef ptr @"_ZZL30nanobind_init_test_holders_extRN8nanobind7module_EENK4$_10clEi"(ptr noundef nonnull align 1 dereferenceable(1) %0, i32 noundef %1) #9 align 2 {
  %3 = alloca ptr, align 8
  %4 = alloca i32, align 4
  store ptr %0, ptr %3, align 8, !tbaa !18
  store i32 %1, ptr %4, align 4, !tbaa !22
  %5 = load i32, ptr %4, align 4, !tbaa !22
  %6 = call noundef ptr @_ZN9ExampleST4makeEi(i32 noundef %5) #19
  ret ptr %6
}

; Function Attrs: mustprogress nounwind optsize uwtable
define linkonce_odr hidden noundef nonnull align 4 dereferenceable(4) ptr @_ZN8nanobind6detail11type_casterIiiEcvOiEv(ptr noundef nonnull align 4 dereferenceable(4) %0) #8 comdat align 2 {
  %2 = alloca ptr, align 8
  store ptr %0, ptr %2, align 8, !tbaa !199
  %3 = load ptr, ptr %2, align 8
  %4 = getelementptr inbounds nuw %"struct.nanobind::detail::type_caster", ptr %3, i32 0, i32 0
  ret ptr %4
}

; Function Attrs: alwaysinline mustprogress nounwind optsize uwtable
define linkonce_odr hidden noundef zeroext i1 @_ZN8nanobind6detail11type_casterIiiE11from_pythonENS_6handleEhPNS0_12cleanup_listE(ptr noundef nonnull align 4 dereferenceable(4) %0, ptr %1, i8 noundef zeroext %2, ptr noundef %3) #5 comdat align 2 {
  %5 = alloca %"class.nanobind::handle", align 8
  %6 = alloca ptr, align 8
  %7 = alloca i8, align 1
  %8 = alloca ptr, align 8
  %9 = getelementptr inbounds nuw %"class.nanobind::handle", ptr %5, i32 0, i32 0
  store ptr %1, ptr %9, align 8
  store ptr %0, ptr %6, align 8, !tbaa !199
  store i8 %2, ptr %7, align 1, !tbaa !19
  store ptr %3, ptr %8, align 8, !tbaa !190
  %10 = load ptr, ptr %6, align 8
  %11 = call noundef ptr @_ZNK8nanobind6handle3ptrEv(ptr noundef nonnull align 8 dereferenceable(8) %5) #19
  %12 = load i8, ptr %7, align 1, !tbaa !19
  %13 = getelementptr inbounds nuw %"struct.nanobind::detail::type_caster", ptr %10, i32 0, i32 0
  %14 = call noundef zeroext i1 @_ZN8nanobind6detail8load_i32EP7_objecthPi(ptr noundef %11, i8 noundef zeroext %12, ptr noundef %13) #21
  ret i1 %14
}

; Function Attrs: alwaysinline mustprogress nounwind optsize uwtable
define linkonce_odr hidden void @_ZN8nanobind6handleC2EPK7_object(ptr noundef nonnull align 8 dereferenceable(8) %0, ptr noundef %1) unnamed_addr #5 comdat align 2 {
  %3 = alloca ptr, align 8
  %4 = alloca ptr, align 8
  store ptr %0, ptr %3, align 8, !tbaa !12
  store ptr %1, ptr %4, align 8, !tbaa !3
  %5 = load ptr, ptr %3, align 8
  %6 = getelementptr inbounds nuw %"class.nanobind::handle", ptr %5, i32 0, i32 0
  %7 = load ptr, ptr %4, align 8, !tbaa !3
  store ptr %7, ptr %6, align 8, !tbaa !14
  ret void
}

; Function Attrs: alwaysinline mustprogress nounwind optsize uwtable
define linkonce_odr hidden noundef nonnull align 4 dereferenceable(4) ptr @_ZN8nanobind6detail5tupleIJNS0_11type_casterIiiEEEE3getILm0EEERDav(ptr noundef nonnull align 4 dereferenceable(4) %0) #5 comdat align 2 {
  %2 = alloca ptr, align 8
  store ptr %0, ptr %2, align 8, !tbaa !208
  %3 = load ptr, ptr %2, align 8
  %4 = getelementptr inbounds nuw %"struct.nanobind::detail::tuple.115", ptr %3, i32 0, i32 0
  ret ptr %4
}

; Function Attrs: alwaysinline mustprogress optsize uwtable
define internal noundef ptr @"_ZZN8nanobind6detail11func_createILb0ELb1EZL30nanobind_init_test_holders_extRNS_7module_EE4$_10PZL30nanobind_init_test_holders_extS3_E9DerivedSTJiEJLm0EEJNS_5scopeENS_4nameEEEEP7_objectOT1_PFT2_DpT3_ESt16integer_sequenceImJXspT4_EEEDpRKT5_ENKUlPvPSA_PhNS_9rv_policyEPNS0_12cleanup_listEE_clESO_SP_SQ_SR_ST_"(ptr noundef nonnull align 1 dereferenceable(1) %0, ptr noundef %1, ptr noundef %2, ptr noundef %3, i32 noundef %4, ptr noundef %5) #3 align 2 {
  %7 = alloca ptr, align 8
  %8 = alloca ptr, align 8
  %9 = alloca ptr, align 8
  %10 = alloca ptr, align 8
  %11 = alloca ptr, align 8
  %12 = alloca i32, align 4
  %13 = alloca ptr, align 8
  %14 = alloca ptr, align 8
  %15 = alloca %"struct.nanobind::detail::tuple.115", align 4
  %16 = alloca %"class.nanobind::handle", align 8
  %17 = alloca i32, align 4
  %18 = alloca ptr, align 8
  %19 = alloca %"class.nanobind::handle", align 8
  %20 = alloca ptr, align 8
  store ptr %0, ptr %8, align 8, !tbaa !18
  store ptr %1, ptr %9, align 8, !tbaa !18
  store ptr %2, ptr %10, align 8, !tbaa !188
  store ptr %3, ptr %11, align 8, !tbaa !34
  store i32 %4, ptr %12, align 4, !tbaa !20
  store ptr %5, ptr %13, align 8, !tbaa !190
  call void @llvm.lifetime.start.p0(i64 8, ptr %14) #20
  %21 = load ptr, ptr %9, align 8, !tbaa !18
  store ptr %21, ptr %14, align 8, !tbaa !499
  call void @llvm.lifetime.start.p0(i64 4, ptr %15) #20
  %22 = call noundef nonnull align 4 dereferenceable(4) ptr @_ZN8nanobind6detail5tupleIJNS0_11type_casterIiiEEEE3getILm0EEERDav(ptr noundef nonnull align 4 dereferenceable(4) %15) #19
  %23 = load ptr, ptr %10, align 8, !tbaa !188
  %24 = getelementptr inbounds nuw ptr, ptr %23, i64 0
  %25 = load ptr, ptr %24, align 8, !tbaa !3
  call void @_ZN8nanobind6handleC2EPK7_object(ptr noundef nonnull align 8 dereferenceable(8) %16, ptr noundef %25) #19
  %26 = load ptr, ptr %11, align 8, !tbaa !34
  %27 = getelementptr inbounds nuw i8, ptr %26, i64 0
  %28 = load i8, ptr %27, align 1, !tbaa !19
  %29 = load ptr, ptr %13, align 8, !tbaa !190
  %30 = getelementptr inbounds nuw %"class.nanobind::handle", ptr %16, i32 0, i32 0
  %31 = load ptr, ptr %30, align 8
  %32 = call noundef zeroext i1 @_ZN8nanobind6detail11type_casterIiiE11from_pythonENS_6handleEhPNS0_12cleanup_listE(ptr noundef nonnull align 4 dereferenceable(4) %22, ptr %31, i8 noundef zeroext %28, ptr noundef %29) #21
  br i1 %32, label %34, label %33

33:                                               ; preds = %6
  store ptr inttoptr (i64 1 to ptr), ptr %7, align 8
  store i32 1, ptr %17, align 4
  br label %46

34:                                               ; preds = %6
  call void @llvm.lifetime.start.p0(i64 8, ptr %18) #20
  call void @llvm.lifetime.start.p0(i64 8, ptr %19) #20
  call void @llvm.lifetime.start.p0(i64 8, ptr %20) #20
  %35 = load ptr, ptr %14, align 8, !tbaa !499
  %36 = call noundef nonnull align 4 dereferenceable(4) ptr @_ZN8nanobind6detail5tupleIJNS0_11type_casterIiiEEEE3getILm0EEERDav(ptr noundef nonnull align 4 dereferenceable(4) %15) #19
  %37 = call noundef nonnull align 4 dereferenceable(4) ptr @_ZN8nanobind6detail11type_casterIiiEcvOiEv(ptr noundef nonnull align 4 dereferenceable(4) %36) #19
  %38 = load i32, ptr %37, align 4, !tbaa !22
  %39 = call noundef ptr @"_ZZL30nanobind_init_test_holders_extRN8nanobind7module_EENK4$_10clEi"(ptr noundef nonnull align 1 dereferenceable(1) %35, i32 noundef %38) #19
  store ptr %39, ptr %20, align 8, !tbaa !479
  %40 = load i32, ptr %12, align 4, !tbaa !20
  %41 = load ptr, ptr %13, align 8, !tbaa !190
  %42 = call ptr @_ZN8nanobind6detail16type_caster_baseIZL30nanobind_init_test_holders_extRNS_7module_EE9DerivedSTE8from_cppIPS4_EENS_6handleEOT_NS_9rv_policyEPNS0_12cleanup_listE(ptr noundef nonnull align 8 dereferenceable(8) %20, i32 noundef %40, ptr noundef %41) #21
  %43 = getelementptr inbounds nuw %"class.nanobind::handle", ptr %19, i32 0, i32 0
  store ptr %42, ptr %43, align 8
  %44 = call noundef ptr @_ZNK8nanobind6handle3ptrEv(ptr noundef nonnull align 8 dereferenceable(8) %19) #19
  store ptr %44, ptr %18, align 8, !tbaa !3
  call void @llvm.lifetime.end.p0(i64 8, ptr %20) #20
  call void @llvm.lifetime.end.p0(i64 8, ptr %19) #20
  %45 = load ptr, ptr %18, align 8, !tbaa !3
  store ptr %45, ptr %7, align 8
  store i32 1, ptr %17, align 4
  call void @llvm.lifetime.end.p0(i64 8, ptr %18) #20
  br label %46

46:                                               ; preds = %34, %33
  call void @llvm.lifetime.end.p0(i64 4, ptr %15) #20
  call void @llvm.lifetime.end.p0(i64 8, ptr %14) #20
  %47 = load ptr, ptr %7, align 8
  ret ptr %47
}

; Function Attrs: inlinehint mustprogress optsize uwtable
define internal noundef ptr @"_ZZN8nanobind6detail11func_createILb0ELb1EZL30nanobind_init_test_holders_extRNS_7module_EE4$_10PZL30nanobind_init_test_holders_extS3_E9DerivedSTJiEJLm0EEJNS_5scopeENS_4nameEEEEP7_objectOT1_PFT2_DpT3_ESt16integer_sequenceImJXspT4_EEEDpRKT5_ENUlPvPSA_PhNS_9rv_policyEPNS0_12cleanup_listEE_8__invokeESO_SP_SQ_SR_ST_"(ptr noundef %0, ptr noundef %1, ptr noundef %2, i32 noundef %3, ptr noundef %4) #9 align 2 {
  %6 = alloca ptr, align 8
  %7 = alloca ptr, align 8
  %8 = alloca ptr, align 8
  %9 = alloca i32, align 4
  %10 = alloca ptr, align 8
  %11 = alloca %class.anon.272, align 1
  store ptr %0, ptr %6, align 8, !tbaa !18
  store ptr %1, ptr %7, align 8, !tbaa !188
  store ptr %2, ptr %8, align 8, !tbaa !34
  store i32 %3, ptr %9, align 4, !tbaa !20
  store ptr %4, ptr %10, align 8, !tbaa !190
  %12 = load ptr, ptr %6, align 8, !tbaa !18
  %13 = load ptr, ptr %7, align 8, !tbaa !188
  %14 = load ptr, ptr %8, align 8, !tbaa !34
  %15 = load i32, ptr %9, align 4, !tbaa !20
  %16 = load ptr, ptr %10, align 8, !tbaa !190
  %17 = call noundef ptr @"_ZZN8nanobind6detail11func_createILb0ELb1EZL30nanobind_init_test_holders_extRNS_7module_EE4$_10PZL30nanobind_init_test_holders_extS3_E9DerivedSTJiEJLm0EEJNS_5scopeENS_4nameEEEEP7_objectOT1_PFT2_DpT3_ESt16integer_sequenceImJXspT4_EEEDpRKT5_ENKUlPvPSA_PhNS_9rv_policyEPNS0_12cleanup_listEE_clESO_SP_SQ_SR_ST_"(ptr noundef nonnull align 1 dereferenceable(1) %11, ptr noundef %12, ptr noundef %13, ptr noundef %14, i32 noundef %15, ptr noundef %16) #19
  ret ptr %17
}