; Function Attrs: inlinehint mustprogress optsize uwtable
define internal noundef ptr @"_ZZN8nanobind6detail11func_createILb0ELb1EZL30nanobind_init_test_holders_extRNS_7module_EE4$_10PZL30nanobind_init_test_holders_extS3_E9DerivedSTJiEJLm0EEJNS_5scopeENS_4nameEEEEP7_objectOT1_PFT2_DpT3_ESt16integer_sequenceImJXspT4_EEEDpRKT5_ENUlPvPSA_PhNS_9rv_policyEPNS0_12cleanup_listEE_8__invokeESO_SP_SQ_SR_ST_"(ptr readnone captures(none) %0, ptr noundef readonly captures(none) %1, ptr noundef readonly captures(none) %2, i32 noundef %3, ptr noundef %4) #8 align 2 personality ptr @__gxx_personality_v0 {
  %6 = alloca %"struct.nanobind::detail::tuple.115", align 4
  call void @llvm.lifetime.start.p0(i64 4, ptr nonnull %6) #26
  %7 = load ptr, ptr %1, align 8, !tbaa !115
  %8 = load i8, ptr %2, align 1, !tbaa !37
  %9 = call noundef zeroext i1 @_ZN8nanobind6detail8load_i32EP7_objecthPi(ptr noundef %7, i8 noundef zeroext %8, ptr noundef nonnull align 4 dereferenceable(4) %6) #27
  br i1 %9, label %10, label %"_ZZN8nanobind6detail11func_createILb0ELb1EZL30nanobind_init_test_holders_extRNS_7module_EE4$_10PZL30nanobind_init_test_holders_extS3_E9DerivedSTJiEJLm0EEJNS_5scopeENS_4nameEEEEP7_objectOT1_PFT2_DpT3_ESt16integer_sequenceImJXspT4_EEEDpRKT5_ENKUlPvPSA_PhNS_9rv_policyEPNS0_12cleanup_listEE_clESO_SP_SQ_SR_ST_.exit"

10:                                               ; preds = %5
  %11 = load i32, ptr %6, align 4, !tbaa !69
  %12 = call noalias noundef nonnull dereferenceable(24) ptr @_Znwm(i64 noundef 24) #29
  call void @llvm.memset.p0.i64(ptr noundef nonnull align 8 dereferenceable(20) %12, i8 0, i64 16, i1 false)
  %13 = getelementptr inbounds nuw i8, ptr %12, i64 16
  store i32 %11, ptr %13, align 8, !tbaa !131
  %14 = load i32, ptr @_ZL7created, align 4, !tbaa !69
  %15 = add nsw i32 %14, 1
  store i32 %15, ptr @_ZL7created, align 4, !tbaa !69
  %16 = icmp eq i32 %3, 0
  %17 = icmp eq i32 %3, 1
  %spec.store.select.i = select i1 %17, i32 5, i32 %3
  %.0.i4 = select i1 %16, i32 2, i32 %spec.store.select.i
  %18 = call noundef ptr @_ZN8nanobind6detail11nb_type_putEPKSt9type_infoPvNS_9rv_policyEPNS0_12cleanup_listEPb(ptr noundef nonnull @_ZTIZL30nanobind_init_test_holders_extRN8nanobind7module_EE9DerivedST, ptr noundef nonnull %12, i32 noundef %.0.i4, ptr noundef %4, ptr noundef null) #27
  br label %"_ZZN8nanobind6detail11func_createILb0ELb1EZL30nanobind_init_test_holders_extRNS_7module_EE4$_10PZL30nanobind_init_test_holders_extS3_E9DerivedSTJiEJLm0EEJNS_5scopeENS_4nameEEEEP7_objectOT1_PFT2_DpT3_ESt16integer_sequenceImJXspT4_EEEDpRKT5_ENKUlPvPSA_PhNS_9rv_policyEPNS0_12cleanup_listEE_clESO_SP_SQ_SR_ST_.exit"

"_ZZN8nanobind6detail11func_createILb0ELb1EZL30nanobind_init_test_holders_extRNS_7module_EE4$_10PZL30nanobind_init_test_holders_extS3_E9DerivedSTJiEJLm0EEJNS_5scopeENS_4nameEEEEP7_objectOT1_PFT2_DpT3_ESt16integer_sequenceImJXspT4_EEEDpRKT5_ENKUlPvPSA_PhNS_9rv_policyEPNS0_12cleanup_listEE_clESO_SP_SQ_SR_ST_.exit": ; preds = %5, %10
  %.0.i = phi ptr [ %18, %10 ], [ inttoptr (i64 1 to ptr), %5 ]
  call void @llvm.lifetime.end.p0(i64 4, ptr nonnull %6) #26
  ret ptr %.0.i
}